; Function Attrs: nounwind uwtable
define ptr @l_List_isSuffixOf_x3f___at_Lean_Widget_exprDiffCore_piDiff___spec__1(ptr noundef %0, ptr noundef %1) local_unnamed_addr #0 {
  %3 = tail call ptr @l_List_reverse___rarg(ptr noundef %0) #7
  %4 = tail call ptr @l_List_reverse___rarg(ptr noundef %1) #7
  %5 = tail call ptr @l_List_isPrefixOf_x3f___at_Lean_Widget_exprDiffCore_piDiff___spec__2(ptr noundef %3, ptr noundef %4)
  %6 = ptrtoint ptr %3 to i64
  %7 = and i64 %6, 1
  %.not = icmp eq i64 %7, 0
  br i1 %.not, label %8, label %lean_dec.exit21

8:                                                ; preds = %2
  %9 = load i32, ptr %3, align 4, !tbaa !8
  %10 = icmp sgt i32 %9, 1
  br i1 %10, label %11, label %13, !prof !11

11:                                               ; preds = %8
  %12 = add nsw i32 %9, -1
  store i32 %12, ptr %3, align 4, !tbaa !8
  br label %lean_dec.exit21

13:                                               ; preds = %8
  %.not.i = icmp eq i32 %9, 0
  br i1 %.not.i, label %lean_dec.exit21, label %14

14:                                               ; preds = %13
  tail call void @lean_dec_ref_cold(ptr noundef nonnull %3) #7
  br label %lean_dec.exit21

lean_dec.exit21:                                  ; preds = %14, %13, %11, %2
  %15 = ptrtoint ptr %5 to i64
  %16 = and i64 %15, 1
  %.not.i24 = icmp eq i64 %16, 0
  br i1 %.not.i24, label %20, label %17

17:                                               ; preds = %lean_dec.exit21
  %18 = lshr i64 %15, 1
  %19 = trunc i64 %18 to i32
  br label %lean_obj_tag.exit

20:                                               ; preds = %lean_dec.exit21
  %21 = getelementptr i8, ptr %5, i64 4
  %.val.i = load i32, ptr %21, align 4
  %22 = lshr i32 %.val.i, 24
  br label %lean_obj_tag.exit

lean_obj_tag.exit:                                ; preds = %17, %20
  %.0.i = phi i32 [ %19, %17 ], [ %22, %20 ]
  %23 = icmp eq i32 %.0.i, 0
  br i1 %23, label %52, label %24

24:                                               ; preds = %lean_obj_tag.exit
  %.val = load i32, ptr %5, align 4, !tbaa !8
  %25 = icmp eq i32 %.val, 1
  %26 = getelementptr inbounds nuw i8, ptr %5, i64 8
  %27 = load ptr, ptr %26, align 8, !tbaa !4
  br i1 %25, label %28, label %30

28:                                               ; preds = %24
  %29 = tail call ptr @l_List_reverse___rarg(ptr noundef %27) #7
  store ptr %29, ptr %26, align 8, !tbaa !4
  br label %52

30:                                               ; preds = %24
  %31 = ptrtoint ptr %27 to i64
  %32 = and i64 %31, 1
  %.not27 = icmp eq i64 %32, 0
  br i1 %.not27, label %33, label %lean_inc.exit

33:                                               ; preds = %30
  %.val.i25 = load i32, ptr %27, align 4, !tbaa !8
  %34 = icmp sgt i32 %.val.i25, 0
  br i1 %34, label %35, label %37, !prof !11

35:                                               ; preds = %33
  %36 = add nuw i32 %.val.i25, 1
  store i32 %36, ptr %27, align 4, !tbaa !8
  br label %lean_inc.exit

37:                                               ; preds = %33
  %.not.i26 = icmp eq i32 %.val.i25, 0
  br i1 %.not.i26, label %lean_inc.exit, label %38

38:                                               ; preds = %37
  tail call void @lean_inc_ref_cold(ptr noundef nonnull %27) #7
  br label %lean_inc.exit

lean_inc.exit:                                    ; preds = %38, %37, %35, %30
  br i1 %.not.i24, label %39, label %lean_dec.exit

39:                                               ; preds = %lean_inc.exit
  %40 = load i32, ptr %5, align 4, !tbaa !8
  %41 = icmp sgt i32 %40, 1
  br i1 %41, label %42, label %44, !prof !11

42:                                               ; preds = %39
  %43 = add nsw i32 %40, -1
  store i32 %43, ptr %5, align 4, !tbaa !8
  br label %lean_dec.exit

44:                                               ; preds = %39
  %.not.i22 = icmp eq i32 %40, 0
  br i1 %.not.i22, label %lean_dec.exit, label %45

45:                                               ; preds = %44
  tail call void @lean_dec_ref_cold(ptr noundef nonnull %5) #7
  br label %lean_dec.exit

lean_dec.exit:                                    ; preds = %45, %44, %42, %lean_inc.exit
  %46 = tail call ptr @l_List_reverse___rarg(ptr noundef %27) #7
  tail call void @lean_inc_heartbeat() #7
  %47 = tail call noalias ptr @mi_malloc_small(i64 noundef 16) #7
  %48 = icmp eq ptr %47, null
  br i1 %48, label %49, label %lean_alloc_ctor.exit

49:                                               ; preds = %lean_dec.exit
  tail call void @lean_internal_panic_out_of_memory() #8
  unreachable

lean_alloc_ctor.exit:                             ; preds = %lean_dec.exit
  %50 = getelementptr inbounds nuw i8, ptr %47, i64 4
  store i32 1, ptr %47, align 4, !tbaa !8
  store i32 16842768, ptr %50, align 4
  %51 = getelementptr inbounds nuw i8, ptr %47, i64 8
  store ptr %46, ptr %51, align 8, !tbaa !4
  br label %52

52:                                               ; preds = %lean_obj_tag.exit, %28, %lean_alloc_ctor.exit
  %.0 = phi ptr [ %5, %28 ], [ %47, %lean_alloc_ctor.exit ], [ inttoptr (i64 1 to ptr), %lean_obj_tag.exit ]
  ret ptr %.0
}